; Function Attrs: mustprogress uwtable
define void @_ZN3net19QuicPacketGeneratorC2EmPNS_10QuicFramerEPNS_10QuicRandomEPNS_19QuicBufferAllocatorEPNS0_17DelegateInterfaceE(ptr noundef nonnull align 8 dereferenceable(472) initializes((0, 8)) %0, i64 noundef %1, ptr noundef %2, ptr noundef %3, ptr noundef %4, ptr noundef %5) unnamed_addr #0 align 2 personality ptr @__gxx_personality_v0 {
  store ptr %5, ptr %0, align 8, !tbaa !3
  %7 = getelementptr inbounds nuw i8, ptr %0, i64 8
  tail call void @_ZN3net17QuicPacketCreatorC1EmPNS_10QuicFramerEPNS_10QuicRandomEPNS_19QuicBufferAllocatorEPNS0_17DelegateInterfaceE(ptr noundef nonnull align 8 dereferenceable(312) %7, i64 noundef %1, ptr noundef %2, ptr noundef %3, ptr noundef %4, ptr noundef %5)
  %8 = getelementptr inbounds nuw i8, ptr %0, i64 320
  %9 = getelementptr inbounds nuw i8, ptr %0, i64 352
  tail call void @llvm.memset.p0.i64(ptr noundef nonnull align 8 dereferenceable(27) %8, i8 0, i64 27, i1 false)
  invoke void @_ZN3net12QuicAckFrameC1Ev(ptr noundef nonnull align 8 dereferenceable(100) %9)
          to label %10 unwind label %13

10:                                               ; preds = %6
  %11 = getelementptr inbounds nuw i8, ptr %0, i64 456
  invoke void @_ZN3net20QuicStopWaitingFrameC1Ev(ptr noundef nonnull align 8 dereferenceable(16) %11)
          to label %12 unwind label %15

12:                                               ; preds = %10
  ret void

13:                                               ; preds = %6
  %14 = landingpad { ptr, i32 }
          cleanup
  br label %17

15:                                               ; preds = %10
  %16 = landingpad { ptr, i32 }
          cleanup
  tail call void @_ZN3net12QuicAckFrameD1Ev(ptr noundef nonnull align 8 dereferenceable(100) %9) #16
  br label %17

17:                                               ; preds = %15, %13
  %.pn = phi { ptr, i32 } [ %16, %15 ], [ %14, %13 ]
  %18 = load ptr, ptr %8, align 8, !tbaa !65
  %.not.i.i.i = icmp eq ptr %18, null
  br i1 %.not.i.i.i, label %_ZNSt6vectorIN3net9QuicFrameESaIS1_EED2Ev.exit, label %19

19:                                               ; preds = %17
  tail call void @_ZdlPv(ptr noundef nonnull %18) #17
  br label %_ZNSt6vectorIN3net9QuicFrameESaIS1_EED2Ev.exit

_ZNSt6vectorIN3net9QuicFrameESaIS1_EED2Ev.exit:   ; preds = %17, %19
  tail call void @_ZN3net17QuicPacketCreatorD1Ev(ptr noundef nonnull align 8 dereferenceable(312) %7) #16
  resume { ptr, i32 } %.pn
}